; Function Attrs: nofree norecurse nosync nounwind memory(read, inaccessiblemem: none) uwtable
define range(i32 0, 100000001) i32 @If_CutGetCutMinLevel(ptr noundef readonly captures(none) %0, ptr noundef readonly captures(none) %1) local_unnamed_addr #7 {
  %3 = getelementptr inbounds nuw i8, ptr %1, i64 36
  %4 = getelementptr inbounds nuw i8, ptr %1, i64 28
  %5 = load i64, ptr %4, align 4
  %6 = and i64 %5, 4278190080
  %.not17 = icmp eq i64 %6, 0
  br i1 %.not17, label %.critedge, label %.lr.ph

.lr.ph:                                           ; preds = %2
  %7 = lshr i64 %5, 24
  %8 = getelementptr i8, ptr %0, i64 40
  %.val = load ptr, ptr %8, align 8, !tbaa !92
  %9 = getelementptr i8, ptr %.val, i64 8
  %.val.val = load ptr, ptr %9, align 8, !tbaa !93
  %wide.trip.count = and i64 %7, 255
  br label %10

10:                                               ; preds = %.lr.ph, %16
  %indvars.iv = phi i64 [ 0, %.lr.ph ], [ %indvars.iv.next, %16 ]
  %.014 = phi i32 [ 100000000, %.lr.ph ], [ %.0., %16 ]
  %11 = getelementptr inbounds nuw [0 x i32], ptr %3, i64 0, i64 %indvars.iv
  %12 = load i32, ptr %11, align 4, !tbaa !14
  %13 = sext i32 %12 to i64
  %14 = getelementptr inbounds ptr, ptr %.val.val, i64 %13
  %15 = load ptr, ptr %14, align 8, !tbaa !95
  %.not = icmp eq ptr %15, null
  br i1 %.not, label %.critedge, label %16

16:                                               ; preds = %10
  %17 = load i32, ptr %15, align 8
  %18 = lshr i32 %17, 13
  %.0. = tail call i32 @llvm.umin.i32(i32 %.014, i32 %18)
  %indvars.iv.next = add nuw nsw i64 %indvars.iv, 1
  %exitcond.not = icmp eq i64 %indvars.iv.next, %wide.trip.count
  br i1 %exitcond.not, label %.critedge, label %10, !llvm.loop !120

.critedge:                                        ; preds = %10, %16, %2
  %.0.lcssa = phi i32 [ 100000000, %2 ], [ %.0., %16 ], [ %.014, %10 ]
  ret i32 %.0.lcssa
}